; Function Attrs: mustprogress nofree norecurse nosync nounwind memory(argmem: readwrite) uwtable
define internal void @_ZN2cv12cpu_baselineL14cvtScale16f32sEPKhmS2_mPhmNS_5Size_IiEEPv(ptr noundef readonly captures(none) %0, i64 noundef %1, ptr readnone captures(none) %2, i64 %3, ptr noundef writeonly captures(none) %4, i64 noundef %5, i64 %6, ptr noundef readonly captures(none) %7) #1 {
  %9 = load double, ptr %7, align 8, !tbaa !7
  %10 = fptrunc double %9 to float
  %11 = getelementptr inbounds nuw i8, ptr %7, i64 8
  %12 = load double, ptr %11, align 8, !tbaa !7
  %13 = fptrunc double %12 to float
  %.sroa.2.0.extract.shift.i = lshr i64 %6, 32
  %.sroa.2.0.extract.trunc.i = trunc nuw i64 %.sroa.2.0.extract.shift.i to i32
  %14 = lshr i64 %1, 1
  %15 = lshr i64 %5, 2
  %16 = icmp sgt i32 %.sroa.2.0.extract.trunc.i, 0
  %.sroa.0.0.extract.trunc.i = trunc i64 %6 to i32
  %17 = icmp sgt i32 %.sroa.0.0.extract.trunc.i, 0
  %or.cond.i = and i1 %17, %16
  br i1 %or.cond.i, label %.preheader.us.preheader.i, label %_ZN2cv12cpu_baseline8cvt1_32fINS_6hfloatEiEEvPKT_mPT0_mNS_5Size_IiEEff.exit

.preheader.us.preheader.i:                        ; preds = %8
  %wide.trip.count.i = and i64 %6, 2147483647
  br label %.preheader.us.i

.preheader.us.i:                                  ; preds = %._crit_edge.us.i, %.preheader.us.preheader.i
  %.01521.us.i = phi i32 [ %41, %._crit_edge.us.i ], [ 0, %.preheader.us.preheader.i ]
  %.01620.us.i = phi ptr [ %42, %._crit_edge.us.i ], [ %0, %.preheader.us.preheader.i ]
  %.01719.us.i = phi ptr [ %43, %._crit_edge.us.i ], [ %4, %.preheader.us.preheader.i ]
  br label %18

18:                                               ; preds = %_ZNK2cv6hfloatcvfEv.exit.us.i, %.preheader.us.i
  %indvars.iv.i = phi i64 [ 0, %.preheader.us.i ], [ %indvars.iv.next.i, %_ZNK2cv6hfloatcvfEv.exit.us.i ]
  %19 = getelementptr inbounds nuw %"class.cv::hfloat", ptr %.01620.us.i, i64 %indvars.iv.i
  %20 = load i16, ptr %19, align 2, !tbaa !45
  %21 = zext i16 %20 to i32
  %22 = shl nuw nsw i32 %21, 13
  %23 = and i32 %22, 268427264
  %24 = add nuw nsw i32 %23, 939524096
  %25 = and i32 %21, 31744
  switch i32 %25, label %_ZNK2cv6hfloatcvfEv.exit.us.i [
    i32 31744, label %31
    i32 0, label %26
  ]

26:                                               ; preds = %18
  %27 = add nuw nsw i32 %23, 947912704
  %28 = bitcast i32 %27 to float
  %29 = fadd float %28, 0xBF10000000000000
  %30 = bitcast float %29 to i32
  br label %_ZNK2cv6hfloatcvfEv.exit.us.i

31:                                               ; preds = %18
  %32 = or i32 %22, 1879048192
  br label %_ZNK2cv6hfloatcvfEv.exit.us.i

_ZNK2cv6hfloatcvfEv.exit.us.i:                    ; preds = %31, %26, %18
  %33 = phi i32 [ %32, %31 ], [ %30, %26 ], [ %24, %18 ]
  %.signext.i.us.i = sext i16 %20 to i32
  %34 = and i32 %.signext.i.us.i, -2147483648
  %35 = or i32 %33, %34
  %36 = bitcast i32 %35 to float
  %37 = tail call float @llvm.fmuladd.f32(float %36, float %10, float %13)
  %38 = insertelement <4 x float> poison, float %37, i64 0
  %39 = tail call noundef i32 @llvm.x86.sse.cvtss2si(<4 x float> %38)
  %40 = getelementptr inbounds nuw i32, ptr %.01719.us.i, i64 %indvars.iv.i
  store i32 %39, ptr %40, align 4, !tbaa !21
  %indvars.iv.next.i = add nuw nsw i64 %indvars.iv.i, 1
  %exitcond.not.i = icmp eq i64 %indvars.iv.next.i, %wide.trip.count.i
  br i1 %exitcond.not.i, label %._crit_edge.us.i, label %18, !llvm.loop !111

._crit_edge.us.i:                                 ; preds = %_ZNK2cv6hfloatcvfEv.exit.us.i
  %41 = add nuw nsw i32 %.01521.us.i, 1
  %42 = getelementptr inbounds nuw %"class.cv::hfloat", ptr %.01620.us.i, i64 %14
  %43 = getelementptr inbounds nuw i32, ptr %.01719.us.i, i64 %15
  %exitcond25.not.i = icmp eq i32 %41, %.sroa.2.0.extract.trunc.i
  br i1 %exitcond25.not.i, label %_ZN2cv12cpu_baseline8cvt1_32fINS_6hfloatEiEEvPKT_mPT0_mNS_5Size_IiEEff.exit, label %.preheader.us.i, !llvm.loop !112

_ZN2cv12cpu_baseline8cvt1_32fINS_6hfloatEiEEvPKT_mPT0_mNS_5Size_IiEEff.exit: ; preds = %._crit_edge.us.i, %8
  ret void
}